; ModuleID = '40/1606.c'
source_filename = "40/1606.c"
target datalayout = "e-m:e-p270:32:32-p271:32:32-p272:64:64-i64:64-f80:128-n8:16:32:64-S128"
target triple = "x86_64-pc-linux-gnu"

@.str = private unnamed_addr constant [20 x i8] c"%lf %lf %lf %lf %lf\00", align 1
@.str.1 = private unnamed_addr constant [14 x i8] c"Invalid input\00", align 1
@.str.2 = private unnamed_addr constant [6 x i8] c"%.4lf\00", align 1

; Function Attrs: noinline nounwind uwtable
define dso_local void @main() #0 {
  %1 = alloca double, align 8
  %2 = alloca double, align 8
  %3 = alloca double, align 8
  %4 = alloca double, align 8
  %5 = alloca double, align 8
  %6 = alloca double, align 8
  %7 = alloca double, align 8
  %8 = call i32 (i8*, ...) @__isoc99_scanf(i8* getelementptr inbounds ([20 x i8], [20 x i8]* @.str, i64 0, i64 0), double* %3, double* %4, double* %5, double* %6, double* %7)
  %9 = load double, double* %3, align 8
  %10 = load double, double* %4, align 8
  %11 = load double, double* %5, align 8
  %12 = load double, double* %6, align 8
  %13 = load double, double* %7, align 8
  %14 = call double @rtrt(double %9, double %10, double %11, double %12, double %13)
  store double %14, double* %2, align 8
  %15 = load double, double* %2, align 8
  %16 = fcmp olt double %15, 0.000000e+00
  br i1 %16, label %17, label %19

17:                                               ; preds = %0
  %18 = call i32 (i8*, ...) @printf(i8* getelementptr inbounds ([14 x i8], [14 x i8]* @.str.1, i64 0, i64 0))
  br label %24

19:                                               ; preds = %0
  %20 = load double, double* %2, align 8
  %21 = call double @sqrt(double %20) #3
  store double %21, double* %1, align 8
  %22 = load double, double* %1, align 8
  %23 = call i32 (i8*, ...) @printf(i8* getelementptr inbounds ([6 x i8], [6 x i8]* @.str.2, i64 0, i64 0), double %22)
  br label %24

24:                                               ; preds = %19, %17
  ret void
}

declare dso_local i32 @__isoc99_scanf(i8*, ...) #1

; Function Attrs: noinline nounwind uwtable
define dso_local double @rtrt(double %0, double %1, double %2, double %3, double %4) #0 {
  %6 = alloca double, align 8
  %7 = alloca double, align 8
  %8 = alloca double, align 8
  %9 = alloca double, align 8
  %10 = alloca double, align 8
  %11 = alloca double, align 8
  %12 = alloca double, align 8
  %13 = alloca double, align 8
  store double %0, double* %6, align 8
  store double %1, double* %7, align 8
  store double %2, double* %8, align 8
  store double %3, double* %9, align 8
  store double %4, double* %10, align 8
  store double 0x400921FB4D12D84A, double* %11, align 8
  %14 = load double, double* %6, align 8
  %15 = load double, double* %7, align 8
  %16 = fadd double %14, %15
  %17 = load double, double* %8, align 8
  %18 = fadd double %16, %17
  %19 = load double, double* %9, align 8
  %20 = fadd double %18, %19
  %21 = fdiv double %20, 2.000000e+00
  store double %21, double* %12, align 8
  %22 = load double, double* %10, align 8
  %23 = load double, double* %11, align 8
  %24 = fmul double %22, %23
  %25 = fdiv double %24, 3.600000e+02
  store double %25, double* %10, align 8
  %26 = load double, double* %12, align 8
  %27 = load double, double* %6, align 8
  %28 = fsub double %26, %27
  %29 = load double, double* %12, align 8
  %30 = load double, double* %7, align 8
  %31 = fsub double %29, %30
  %32 = fmul double %28, %31
  %33 = load double, double* %12, align 8
  %34 = load double, double* %8, align 8
  %35 = fsub double %33, %34
  %36 = fmul double %32, %35
  %37 = load double, double* %12, align 8
  %38 = load double, double* %9, align 8
  %39 = fsub double %37, %38
  %40 = fmul double %36, %39
  %41 = load double, double* %6, align 8
  %42 = load double, double* %7, align 8
  %43 = fmul double %41, %42
  %44 = load double, double* %8, align 8
  %45 = fmul double %43, %44
  %46 = load double, double* %9, align 8
  %47 = fmul double %45, %46
  %48 = load double, double* %10, align 8
  %49 = call double @cos(double %48) #3
  %50 = fmul double %47, %49
  %51 = load double, double* %10, align 8
  %52 = call double @cos(double %51) #3
  %53 = fmul double %50, %52
  %54 = fsub double %40, %53
  store double %54, double* %13, align 8
  %55 = load double, double* %13, align 8
  ret double %55
}

declare dso_local i32 @printf(i8*, ...) #1

; Function Attrs: nounwind
declare dso_local double @sqrt(double) #2

; Function Attrs: nounwind
declare dso_local double @cos(double) #2


!llvm.module.flags = !{!0}
!llvm.ident = !{!1}

!0 = !{i32 1, !"wchar_size", i32 4}
!1 = !{!"clang version 10.0.0-4ubuntu1 "}
